; Function Attrs: nounwind uwtable
define internal noundef i32 @stats_mutexes_prof_recent_alloc_total_wait_time_ctl(ptr noundef %tsd, ptr nocapture readnone %mib, i64 %miblen, ptr noundef writeonly %oldp, ptr noundef %oldlenp, ptr noundef readnone %newp, i64 noundef %newlen) #0 {
entry:
  %oldval = alloca i64, align 8
  %call.i.i = tail call i32 @pthread_mutex_trylock(ptr noundef nonnull getelementptr inbounds (%struct.malloc_mutex_s, ptr @ctl_mtx, i64 0, i32 0, i32 0, i32 1, i32 0, i32 0)) #14
  %cmp.i.not.i = icmp eq i32 %call.i.i, 0
  br i1 %cmp.i.not.i, label %if.end.i, label %if.then.i

if.then.i:                                        ; preds = %entry
  tail call void @malloc_mutex_lock_slow(ptr noundef nonnull @ctl_mtx) #14
  store atomic i8 1, ptr getelementptr inbounds (%struct.malloc_mutex_s, ptr @ctl_mtx, i64 0, i32 0, i32 0, i32 2, i32 0) monotonic, align 8
  br label %if.end.i

if.end.i:                                         ; preds = %if.then.i, %entry
  %0 = load i64, ptr getelementptr inbounds (%struct.malloc_mutex_s, ptr @ctl_mtx, i64 0, i32 0, i32 0, i32 0, i32 8), align 8
  %inc.i.i = add i64 %0, 1
  store i64 %inc.i.i, ptr getelementptr inbounds (%struct.malloc_mutex_s, ptr @ctl_mtx, i64 0, i32 0, i32 0, i32 0, i32 8), align 8
  %1 = load ptr, ptr getelementptr inbounds (%struct.malloc_mutex_s, ptr @ctl_mtx, i64 0, i32 0, i32 0, i32 0, i32 7), align 8
  %cmp.not.i.i = icmp eq ptr %1, %tsd
  br i1 %cmp.not.i.i, label %malloc_mutex_lock.exit, label %if.then.i.i

if.then.i.i:                                      ; preds = %if.end.i
  store ptr %tsd, ptr getelementptr inbounds (%struct.malloc_mutex_s, ptr @ctl_mtx, i64 0, i32 0, i32 0, i32 0, i32 7), align 8
  %2 = load i64, ptr getelementptr inbounds (%struct.malloc_mutex_s, ptr @ctl_mtx, i64 0, i32 0, i32 0, i32 0, i32 6), align 8
  %inc2.i.i = add i64 %2, 1
  store i64 %inc2.i.i, ptr getelementptr inbounds (%struct.malloc_mutex_s, ptr @ctl_mtx, i64 0, i32 0, i32 0, i32 0, i32 6), align 8
  br label %malloc_mutex_lock.exit

malloc_mutex_lock.exit:                           ; preds = %if.end.i, %if.then.i.i
  %cmp = icmp ne ptr %newp, null
  %cmp1 = icmp ne i64 %newlen, 0
  %or.cond = or i1 %cmp, %cmp1
  br i1 %or.cond, label %label_return, label %do.end

do.end:                                           ; preds = %malloc_mutex_lock.exit
  %3 = load ptr, ptr @ctl_stats, align 8
  %arrayidx = getelementptr inbounds i8, ptr %3, i64 528
  %call2 = tail call i64 @nstime_ns(ptr noundef nonnull %arrayidx) #14
  store i64 %call2, ptr %oldval, align 8
  %cmp4 = icmp ne ptr %oldp, null
  %cmp5 = icmp ne ptr %oldlenp, null
  %or.cond1 = and i1 %cmp4, %cmp5
  br i1 %or.cond1, label %if.then6, label %label_return

if.then6:                                         ; preds = %do.end
  %4 = load i64, ptr %oldlenp, align 8
  %cmp7.not = icmp eq i64 %4, 8
  br i1 %cmp7.not, label %if.end10, label %if.then8

if.then8:                                         ; preds = %if.then6
  %spec.select = tail call i64 @llvm.umin.i64(i64 %4, i64 8)
  call void @llvm.memcpy.p0.p0.i64(ptr nonnull align 1 %oldp, ptr nonnull align 8 %oldval, i64 %spec.select, i1 false)
  store i64 %spec.select, ptr %oldlenp, align 8
  br label %label_return

if.end10:                                         ; preds = %if.then6
  store i64 %call2, ptr %oldp, align 8
  br label %label_return

label_return:                                     ; preds = %if.end10, %do.end, %malloc_mutex_lock.exit, %if.then8
  %ret.0 = phi i32 [ 22, %if.then8 ], [ 1, %malloc_mutex_lock.exit ], [ 0, %do.end ], [ 0, %if.end10 ]
  store atomic i8 0, ptr getelementptr inbounds (%struct.malloc_mutex_s, ptr @ctl_mtx, i64 0, i32 0, i32 0, i32 2, i32 0) monotonic, align 8
  %call1.i = tail call i32 @pthread_mutex_unlock(ptr noundef nonnull getelementptr inbounds (%struct.malloc_mutex_s, ptr @ctl_mtx, i64 0, i32 0, i32 0, i32 1, i32 0, i32 0)) #14
  ret i32 %ret.0
}